; Function Attrs: mustprogress nofree norecurse nosync nounwind willreturn memory(read, inaccessiblemem: none) uwtable
define internal fastcc noundef i32 @_ZNK6icu_7712_GLOBAL__N_111MixedBlocks9findBlockItjEEiPKT_PKT0_i(ptr noundef nonnull readonly align 8 captures(none) dereferenceable(28) %0, ptr noundef readonly captures(none) %1, ptr noundef readonly captures(none) %2, i32 noundef range(i32 -2147483648, 134217727) %3) unnamed_addr #4 align 2 {
  %5 = getelementptr inbounds nuw i8, ptr %0, i64 24
  %.val = load i32, ptr %5, align 8, !tbaa !62
  %.fr46.i = freeze i32 %.val
  %6 = add nsw i32 %.fr46.i, %3
  %7 = add nsw i32 %3, 1
  %8 = sext i32 %3 to i64
  %9 = getelementptr inbounds i32, ptr %2, i64 %8
  %10 = load i32, ptr %9, align 4, !tbaa !25
  %11 = sext i32 %7 to i64
  %12 = sext i32 %6 to i64
  br label %13

13:                                               ; preds = %13, %4
  %indvars.iv.i = phi i64 [ %indvars.iv.next.i, %13 ], [ %11, %4 ]
  %.0.i = phi i32 [ %17, %13 ], [ %10, %4 ]
  %14 = mul i32 %.0.i, 37
  %indvars.iv.next.i = add nsw i64 %indvars.iv.i, 1
  %15 = getelementptr inbounds i32, ptr %2, i64 %indvars.iv.i
  %16 = load i32, ptr %15, align 4, !tbaa !25
  %17 = add i32 %14, %16
  %18 = icmp slt i64 %indvars.iv.next.i, %12
  br i1 %18, label %13, label %_ZNK6icu_7712_GLOBAL__N_111MixedBlocks12makeHashCodeIjEEjPKT_i.exit, !llvm.loop !71

_ZNK6icu_7712_GLOBAL__N_111MixedBlocks12makeHashCodeIjEEjPKT_i.exit: ; preds = %13
  %19 = getelementptr inbounds nuw i8, ptr %0, i64 16
  %20 = load i32, ptr %19, align 8, !tbaa !55
  %21 = shl i32 %17, %20
  %22 = getelementptr inbounds nuw i8, ptr %0, i64 12
  %23 = load i32, ptr %22, align 4, !tbaa !61
  %24 = add nsw i32 %23, -1
  %25 = urem i32 %17, %24
  %26 = add nuw i32 %25, 1
  %27 = load ptr, ptr %0, align 8, !tbaa !58
  %28 = sext i32 %26 to i64
  %29 = getelementptr inbounds i32, ptr %27, i64 %28
  %30 = load i32, ptr %29, align 4, !tbaa !25
  %31 = icmp eq i32 %30, 0
  br i1 %31, label %._crit_edge.i, label %.lr.ph.i

.lr.ph.i:                                         ; preds = %_ZNK6icu_7712_GLOBAL__N_111MixedBlocks12makeHashCodeIjEEjPKT_i.exit
  %32 = getelementptr inbounds nuw i8, ptr %0, i64 20
  %33 = load i32, ptr %32, align 4, !tbaa !57
  %34 = xor i32 %33, -1
  %35 = icmp sgt i32 %.fr46.i, 0
  br i1 %35, label %.lr.ph.split.us.i, label %.lr.ph.split.i

.lr.ph.split.us.i:                                ; preds = %.lr.ph.i, %_ZN6icu_7712_GLOBAL__N_111equalBlocksItjEEbPKT_PKT0_i.exit.thread27.us.i
  %36 = phi i32 [ %51, %_ZN6icu_7712_GLOBAL__N_111equalBlocksItjEEbPKT_PKT0_i.exit.thread27.us.i ], [ %30, %.lr.ph.i ]
  %.02237.us.i = phi i32 [ %48, %_ZN6icu_7712_GLOBAL__N_111equalBlocksItjEEbPKT_PKT0_i.exit.thread27.us.i ], [ %26, %.lr.ph.i ]
  %37 = and i32 %36, %34
  %38 = icmp eq i32 %37, %21
  br i1 %38, label %.lr.ph.i.preheader.us.i, label %_ZN6icu_7712_GLOBAL__N_111equalBlocksItjEEbPKT_PKT0_i.exit.thread27.us.i

.lr.ph.i.preheader.us.i:                          ; preds = %.lr.ph.split.us.i
  %39 = and i32 %36, %33
  %40 = add i32 %39, -1
  %41 = sext i32 %40 to i64
  %42 = getelementptr inbounds i16, ptr %1, i64 %41
  br label %.lr.ph.i.us.i

.lr.ph.i.us.i:                                    ; preds = %53, %.lr.ph.i.preheader.us.i
  %.010.i.us.i = phi i32 [ %56, %53 ], [ %.fr46.i, %.lr.ph.i.preheader.us.i ]
  %.069.i.us.i = phi ptr [ %55, %53 ], [ %9, %.lr.ph.i.preheader.us.i ]
  %.078.i.us.i = phi ptr [ %54, %53 ], [ %42, %.lr.ph.i.preheader.us.i ]
  %43 = load i16, ptr %.078.i.us.i, align 2, !tbaa !33
  %44 = zext i16 %43 to i32
  %45 = load i32, ptr %.069.i.us.i, align 4, !tbaa !25
  %46 = icmp eq i32 %45, %44
  br i1 %46, label %53, label %_ZN6icu_7712_GLOBAL__N_111equalBlocksItjEEbPKT_PKT0_i.exit.thread27.us.i

_ZN6icu_7712_GLOBAL__N_111equalBlocksItjEEbPKT_PKT0_i.exit.thread27.us.i: ; preds = %.lr.ph.i.us.i, %.lr.ph.split.us.i
  %47 = add nsw i32 %.02237.us.i, %26
  %48 = srem i32 %47, %23
  %49 = sext i32 %48 to i64
  %50 = getelementptr inbounds i32, ptr %27, i64 %49
  %51 = load i32, ptr %50, align 4, !tbaa !25
  %52 = icmp eq i32 %51, 0
  br i1 %52, label %._crit_edge.i, label %.lr.ph.split.us.i, !llvm.loop !109

53:                                               ; preds = %.lr.ph.i.us.i
  %54 = getelementptr inbounds nuw i8, ptr %.078.i.us.i, i64 2
  %55 = getelementptr inbounds nuw i8, ptr %.069.i.us.i, i64 4
  %56 = add nsw i32 %.010.i.us.i, -1
  %57 = icmp sgt i32 %.010.i.us.i, 1
  br i1 %57, label %.lr.ph.i.us.i, label %_ZNK6icu_7712_GLOBAL__N_111MixedBlocks9findEntryItjEEiPKT_PKT0_ij.exit, !llvm.loop !81

.lr.ph.split.i:                                   ; preds = %.lr.ph.i
  %58 = icmp eq i32 %.fr46.i, 0
  br i1 %58, label %.lr.ph.split.split.us.i, label %.lr.ph.split.split.i

.lr.ph.split.split.us.i:                          ; preds = %.lr.ph.split.i, %_ZN6icu_7712_GLOBAL__N_111equalBlocksItjEEbPKT_PKT0_i.exit.thread27.us40.i
  %59 = phi i32 [ %66, %_ZN6icu_7712_GLOBAL__N_111equalBlocksItjEEbPKT_PKT0_i.exit.thread27.us40.i ], [ %30, %.lr.ph.split.i ]
  %.02237.us39.i = phi i32 [ %63, %_ZN6icu_7712_GLOBAL__N_111equalBlocksItjEEbPKT_PKT0_i.exit.thread27.us40.i ], [ %26, %.lr.ph.split.i ]
  %60 = and i32 %59, %34
  %61 = icmp eq i32 %60, %21
  br i1 %61, label %_ZNK6icu_7712_GLOBAL__N_111MixedBlocks9findEntryItjEEiPKT_PKT0_ij.exit, label %_ZN6icu_7712_GLOBAL__N_111equalBlocksItjEEbPKT_PKT0_i.exit.thread27.us40.i

_ZN6icu_7712_GLOBAL__N_111equalBlocksItjEEbPKT_PKT0_i.exit.thread27.us40.i: ; preds = %.lr.ph.split.split.us.i
  %62 = add nsw i32 %.02237.us39.i, %26
  %63 = srem i32 %62, %23
  %64 = sext i32 %63 to i64
  %65 = getelementptr inbounds i32, ptr %27, i64 %64
  %66 = load i32, ptr %65, align 4, !tbaa !25
  %67 = icmp eq i32 %66, 0
  br i1 %67, label %._crit_edge.i, label %.lr.ph.split.split.us.i, !llvm.loop !109

._crit_edge.i:                                    ; preds = %.lr.ph.split.split.i, %_ZN6icu_7712_GLOBAL__N_111equalBlocksItjEEbPKT_PKT0_i.exit.thread27.us40.i, %_ZN6icu_7712_GLOBAL__N_111equalBlocksItjEEbPKT_PKT0_i.exit.thread27.us.i, %_ZNK6icu_7712_GLOBAL__N_111MixedBlocks12makeHashCodeIjEEjPKT_i.exit
  %.022.lcssa.i = phi i32 [ %26, %_ZNK6icu_7712_GLOBAL__N_111MixedBlocks12makeHashCodeIjEEjPKT_i.exit ], [ %48, %_ZN6icu_7712_GLOBAL__N_111equalBlocksItjEEbPKT_PKT0_i.exit.thread27.us.i ], [ %63, %_ZN6icu_7712_GLOBAL__N_111equalBlocksItjEEbPKT_PKT0_i.exit.thread27.us40.i ], [ %70, %.lr.ph.split.split.i ]
  %68 = xor i32 %.022.lcssa.i, -1
  br label %_ZNK6icu_7712_GLOBAL__N_111MixedBlocks9findEntryItjEEiPKT_PKT0_ij.exit

.lr.ph.split.split.i:                             ; preds = %.lr.ph.split.i, %.lr.ph.split.split.i
  %.02237.i = phi i32 [ %70, %.lr.ph.split.split.i ], [ %26, %.lr.ph.split.i ]
  %69 = add nsw i32 %.02237.i, %26
  %70 = srem i32 %69, %23
  %71 = sext i32 %70 to i64
  %72 = getelementptr inbounds i32, ptr %27, i64 %71
  %73 = load i32, ptr %72, align 4, !tbaa !25
  %74 = icmp eq i32 %73, 0
  br i1 %74, label %._crit_edge.i, label %.lr.ph.split.split.i, !llvm.loop !109

_ZNK6icu_7712_GLOBAL__N_111MixedBlocks9findEntryItjEEiPKT_PKT0_ij.exit: ; preds = %.lr.ph.split.split.us.i, %53, %._crit_edge.i
  %.1.ph.i = phi i32 [ %68, %._crit_edge.i ], [ %.02237.us.i, %53 ], [ %.02237.us39.i, %.lr.ph.split.split.us.i ]
  %75 = icmp sgt i32 %.1.ph.i, -1
  br i1 %75, label %76, label %84

76:                                               ; preds = %_ZNK6icu_7712_GLOBAL__N_111MixedBlocks9findEntryItjEEiPKT_PKT0_ij.exit
  %77 = zext nneg i32 %.1.ph.i to i64
  %78 = getelementptr inbounds nuw i32, ptr %27, i64 %77
  %79 = load i32, ptr %78, align 4, !tbaa !25
  %80 = getelementptr inbounds nuw i8, ptr %0, i64 20
  %81 = load i32, ptr %80, align 4, !tbaa !57
  %82 = and i32 %81, %79
  %83 = add i32 %82, -1
  br label %84

84:                                               ; preds = %_ZNK6icu_7712_GLOBAL__N_111MixedBlocks9findEntryItjEEiPKT_PKT0_ij.exit, %76
  %.0 = phi i32 [ %83, %76 ], [ -1, %_ZNK6icu_7712_GLOBAL__N_111MixedBlocks9findEntryItjEEiPKT_PKT0_ij.exit ]
  ret i32 %.0
}